target datalayout = "e-m:e-p270:32:32-p271:32:32-p272:64:64-i64:64-i128:128-f80:128-n8:16:32:64-S128"
target triple = "x86_64-pc-linux-gnu"

%struct.FLAC__StreamMetadata = type { i32, i32, i32, %union.anon }
%union.anon = type { %struct.FLAC__StreamMetadata_CueSheet }
%struct.FLAC__StreamMetadata_CueSheet = type { [129 x i8], i64, i32, i32, ptr }
%struct.FLAC__StreamMetadata_VorbisComment_Entry = type { i32, ptr }
%struct.FLAC__StreamMetadata_VorbisComment = type { %struct.FLAC__StreamMetadata_VorbisComment_Entry, i32, ptr }

@.str = private unnamed_addr constant [30 x i8] c"REPLAYGAIN_REFERENCE_LOUDNESS\00", align 1
@.str.1 = private unnamed_addr constant [22 x i8] c"REPLAYGAIN_TRACK_GAIN\00", align 1
@.str.2 = private unnamed_addr constant [22 x i8] c"REPLAYGAIN_TRACK_PEAK\00", align 1
@.str.3 = private unnamed_addr constant [22 x i8] c"REPLAYGAIN_ALBUM_GAIN\00", align 1
@.str.4 = private unnamed_addr constant [22 x i8] c"REPLAYGAIN_ALBUM_PEAK\00", align 1
@ReplayGainReferenceLoudness = external global float, align 4
@.str.8 = private unnamed_addr constant [2 x i8] c"C\00", align 1

; Function Attrs: alwaysinline nounwind
define internal ptr @strncpy.inline(ptr noalias nonnull %0, ptr noalias nonnull %1, i64 %2) #7 {
  %4 = alloca ptr, align 8
  %5 = alloca ptr, align 8
  %6 = alloca i64, align 8
  store ptr %0, ptr %4, align 8, !tbaa !28
  store ptr %1, ptr %5, align 8, !tbaa !28
  store i64 %2, ptr %6, align 8, !tbaa !70
  %7 = load ptr, ptr %4, align 8, !tbaa !28
  %8 = load ptr, ptr %5, align 8, !tbaa !28
  %9 = load i64, ptr %6, align 8, !tbaa !70
  %10 = load ptr, ptr %4, align 8, !tbaa !28
  %11 = call i64 @llvm.objectsize.i64.p0(ptr %10, i1 false, i1 true, i1 false)
  %12 = call ptr @__strncpy_chk(ptr noundef %7, ptr noundef %8, i64 noundef %9, i64 noundef %11) #8
  ret ptr %12
}

; Function Attrs: inlinehint nounwind sspstrong uwtable
define internal ptr @safe_strncpy(ptr noundef %0, ptr noundef %1, i64 noundef %2) #6 {
  %4 = alloca ptr, align 8
  %5 = alloca ptr, align 8
  %6 = alloca ptr, align 8
  %7 = alloca i64, align 8
  %8 = alloca ptr, align 8
  %9 = alloca i32, align 4
  store ptr %0, ptr %5, align 8, !tbaa !28
  store ptr %1, ptr %6, align 8, !tbaa !28
  store i64 %2, ptr %7, align 8, !tbaa !70
  call void @llvm.lifetime.start.p0(i64 8, ptr %8) #8
  %10 = load i64, ptr %7, align 8, !tbaa !70
  %11 = icmp ult i64 %10, 1
  br i1 %11, label %12, label %14

12:                                               ; preds = %3
  %13 = load ptr, ptr %5, align 8, !tbaa !28
  store ptr %13, ptr %4, align 8
  store i32 1, ptr %9, align 4
  br label %25

14:                                               ; preds = %3
  %15 = load ptr, ptr %5, align 8, !tbaa !28
  %16 = load ptr, ptr %6, align 8, !tbaa !28
  %17 = load i64, ptr %7, align 8, !tbaa !70
  %18 = sub i64 %17, 1
  %19 = call ptr @strncpy.inline(ptr noundef %15, ptr noundef %16, i64 noundef %18) #8
  store ptr %19, ptr %8, align 8, !tbaa !28
  %20 = load ptr, ptr %5, align 8, !tbaa !28
  %21 = load i64, ptr %7, align 8, !tbaa !70
  %22 = sub i64 %21, 1
  %23 = getelementptr inbounds nuw i8, ptr %20, i64 %22
  store i8 0, ptr %23, align 1, !tbaa !48
  %24 = load ptr, ptr %8, align 8, !tbaa !28
  store ptr %24, ptr %4, align 8
  store i32 1, ptr %9, align 4
  br label %25

25:                                               ; preds = %14, %12
  call void @llvm.lifetime.end.p0(i64 8, ptr %8) #8
  %26 = load ptr, ptr %4, align 8
  ret ptr %26
}

; Function Attrs: nounwind sspstrong uwtable
define internal i32 @parse_double_(ptr noundef %0, ptr noundef %1) #0 {
  %3 = alloca i32, align 4
  %4 = alloca ptr, align 8
  %5 = alloca ptr, align 8
  %6 = alloca [32 x i8], align 16
  %7 = alloca ptr, align 8
  %8 = alloca ptr, align 8
  %9 = alloca ptr, align 8
  %10 = alloca double, align 8
  %11 = alloca i32, align 4
  store ptr %0, ptr %4, align 8, !tbaa !30
  store ptr %1, ptr %5, align 8, !tbaa !62
  call void @llvm.lifetime.start.p0(i64 32, ptr %6) #8
  call void @llvm.lifetime.start.p0(i64 8, ptr %7) #8
  call void @llvm.lifetime.start.p0(i64 8, ptr %8) #8
  call void @llvm.lifetime.start.p0(i64 8, ptr %9) #8
  call void @llvm.lifetime.start.p0(i64 8, ptr %10) #8
  %12 = load ptr, ptr %4, align 8, !tbaa !30
  %13 = getelementptr inbounds nuw %struct.FLAC__StreamMetadata_VorbisComment_Entry, ptr %12, i32 0, i32 1
  %14 = load ptr, ptr %13, align 8, !tbaa !49
  store ptr %14, ptr %8, align 8, !tbaa !28
  %15 = load ptr, ptr %8, align 8, !tbaa !28
  %16 = call ptr @strchr(ptr noundef %15, i32 noundef 61) #9
  store ptr %16, ptr %9, align 8, !tbaa !28
  %17 = load ptr, ptr %9, align 8, !tbaa !28
  %18 = icmp eq ptr null, %17
  br i1 %18, label %19, label %20

19:                                               ; preds = %2
  store i32 0, ptr %3, align 4
  store i32 1, ptr %11, align 4
  br label %60

20:                                               ; preds = %2
  %21 = load ptr, ptr %9, align 8, !tbaa !28
  %22 = getelementptr inbounds nuw i8, ptr %21, i32 1
  store ptr %22, ptr %9, align 8, !tbaa !28
  %23 = getelementptr inbounds [32 x i8], ptr %6, i64 0, i64 0
  %24 = load ptr, ptr %9, align 8, !tbaa !28
  %25 = load ptr, ptr %4, align 8, !tbaa !30
  %26 = getelementptr inbounds nuw %struct.FLAC__StreamMetadata_VorbisComment_Entry, ptr %25, i32 0, i32 0
  %27 = load i32, ptr %26, align 8, !tbaa !51
  %28 = zext i32 %27 to i64
  %29 = load ptr, ptr %9, align 8, !tbaa !28
  %30 = load ptr, ptr %8, align 8, !tbaa !28
  %31 = ptrtoint ptr %29 to i64
  %32 = ptrtoint ptr %30 to i64
  %33 = sub i64 %31, %32
  %34 = sub nsw i64 %28, %33
  %35 = icmp ult i64 32, %34
  br i1 %35, label %36, label %37

36:                                               ; preds = %20
  br label %48

37:                                               ; preds = %20
  %38 = load ptr, ptr %4, align 8, !tbaa !30
  %39 = getelementptr inbounds nuw %struct.FLAC__StreamMetadata_VorbisComment_Entry, ptr %38, i32 0, i32 0
  %40 = load i32, ptr %39, align 8, !tbaa !51
  %41 = zext i32 %40 to i64
  %42 = load ptr, ptr %9, align 8, !tbaa !28
  %43 = load ptr, ptr %8, align 8, !tbaa !28
  %44 = ptrtoint ptr %42 to i64
  %45 = ptrtoint ptr %43 to i64
  %46 = sub i64 %44, %45
  %47 = sub nsw i64 %41, %46
  br label %48

48:                                               ; preds = %37, %36
  %49 = phi i64 [ 32, %36 ], [ %47, %37 ]
  %50 = call ptr @safe_strncpy(ptr noundef %23, ptr noundef %24, i64 noundef %49)
  %51 = getelementptr inbounds [32 x i8], ptr %6, i64 0, i64 0
  %52 = call double @strtod(ptr noundef %51, ptr noundef %7) #8
  store double %52, ptr %10, align 8, !tbaa !8
  %53 = load ptr, ptr %7, align 8, !tbaa !28
  %54 = getelementptr inbounds [32 x i8], ptr %6, i64 0, i64 0
  %55 = icmp eq ptr %53, %54
  br i1 %55, label %56, label %57

56:                                               ; preds = %48
  store i32 0, ptr %3, align 4
  store i32 1, ptr %11, align 4
  br label %60

57:                                               ; preds = %48
  %58 = load double, ptr %10, align 8, !tbaa !8
  %59 = load ptr, ptr %5, align 8, !tbaa !62
  store double %58, ptr %59, align 8, !tbaa !8
  store i32 1, ptr %3, align 4
  store i32 1, ptr %11, align 4
  br label %60

60:                                               ; preds = %57, %56, %19
  call void @llvm.lifetime.end.p0(i64 8, ptr %10) #8
  call void @llvm.lifetime.end.p0(i64 8, ptr %9) #8
  call void @llvm.lifetime.end.p0(i64 8, ptr %8) #8
  call void @llvm.lifetime.end.p0(i64 8, ptr %7) #8
  call void @llvm.lifetime.end.p0(i64 32, ptr %6) #8
  %61 = load i32, ptr %3, align 4
  ret i32 %61
}

; Function Attrs: nounwind sspstrong uwtable
define dso_local i32 @grabbag__replaygain_load_from_vorbiscomment(ptr noundef %0, i32 noundef %1, i32 noundef %2, ptr noundef %3, ptr noundef %4, ptr noundef %5) #0 {
  %7 = alloca i32, align 4
  %8 = alloca ptr, align 8
  %9 = alloca i32, align 4
  %10 = alloca i32, align 4
  %11 = alloca ptr, align 8
  %12 = alloca ptr, align 8
  %13 = alloca ptr, align 8
  %14 = alloca i32, align 4
  %15 = alloca i32, align 4
  %16 = alloca i32, align 4
  %17 = alloca ptr, align 8
  %18 = alloca i32, align 4
  %19 = alloca i32, align 4
  store ptr %0, ptr %8, align 8, !tbaa !44
  store i32 %1, ptr %9, align 4, !tbaa !4
  store i32 %2, ptr %10, align 4, !tbaa !4
  store ptr %3, ptr %11, align 8, !tbaa !62
  store ptr %4, ptr %12, align 8, !tbaa !62
  store ptr %5, ptr %13, align 8, !tbaa !62
  call void @llvm.lifetime.start.p0(i64 4, ptr %14) #8
  call void @llvm.lifetime.start.p0(i64 4, ptr %15) #8
  call void @llvm.lifetime.start.p0(i64 4, ptr %16) #8
  call void @llvm.lifetime.start.p0(i64 8, ptr %17) #8
  call void @llvm.lifetime.start.p0(i64 4, ptr %18) #8
  store i32 1, ptr %18, align 4, !tbaa !4
  %20 = load float, ptr @ReplayGainReferenceLoudness, align 4, !tbaa !15
  %21 = fpext float %20 to double
  %22 = load ptr, ptr %11, align 8, !tbaa !62
  store double %21, ptr %22, align 8, !tbaa !8
  %23 = call ptr @setlocale(i32 noundef 6, ptr noundef null) #8
  %24 = call noalias ptr @strdup(ptr noundef %23) #8
  store ptr %24, ptr %17, align 8, !tbaa !28
  %25 = load ptr, ptr %17, align 8, !tbaa !28
  %26 = icmp eq ptr null, %25
  br i1 %26, label %27, label %28

27:                                               ; preds = %6
  store i32 0, ptr %7, align 4
  store i32 1, ptr %19, align 4
  br label %118

28:                                               ; preds = %6
  %29 = call ptr @setlocale(i32 noundef 6, ptr noundef @.str.8) #8
  %30 = load ptr, ptr %8, align 8, !tbaa !44
  %31 = call i32 @FLAC__metadata_object_vorbiscomment_find_entry_from(ptr noundef %30, i32 noundef 0, ptr noundef @.str)
  store i32 %31, ptr %14, align 4, !tbaa !4
  %32 = icmp sle i32 0, %31
  br i1 %32, label %33, label %43

33:                                               ; preds = %28
  %34 = load ptr, ptr %8, align 8, !tbaa !44
  %35 = getelementptr inbounds nuw %struct.FLAC__StreamMetadata, ptr %34, i32 0, i32 3
  %36 = getelementptr inbounds nuw %struct.FLAC__StreamMetadata_VorbisComment, ptr %35, i32 0, i32 2
  %37 = load ptr, ptr %36, align 8, !tbaa !48
  %38 = load i32, ptr %14, align 4, !tbaa !4
  %39 = sext i32 %38 to i64
  %40 = getelementptr inbounds %struct.FLAC__StreamMetadata_VorbisComment_Entry, ptr %37, i64 %39
  %41 = load ptr, ptr %11, align 8, !tbaa !62
  %42 = call i32 @parse_double_(ptr noundef %40, ptr noundef %41)
  br label %43

43:                                               ; preds = %33, %28
  %44 = load ptr, ptr %8, align 8, !tbaa !44
  %45 = load i32, ptr %9, align 4, !tbaa !4
  %46 = icmp ne i32 %45, 0
  %47 = select i1 %46, ptr @.str.3, ptr @.str.1
  %48 = call i32 @FLAC__metadata_object_vorbiscomment_find_entry_from(ptr noundef %44, i32 noundef 0, ptr noundef %47)
  store i32 %48, ptr %15, align 4, !tbaa !4
  %49 = icmp sgt i32 0, %48
  br i1 %49, label %50, label %51

50:                                               ; preds = %43
  store i32 0, ptr %18, align 4, !tbaa !4
  br label %51

51:                                               ; preds = %50, %43
  %52 = load ptr, ptr %8, align 8, !tbaa !44
  %53 = load i32, ptr %9, align 4, !tbaa !4
  %54 = icmp ne i32 %53, 0
  %55 = select i1 %54, ptr @.str.4, ptr @.str.2
  %56 = call i32 @FLAC__metadata_object_vorbiscomment_find_entry_from(ptr noundef %52, i32 noundef 0, ptr noundef %55)
  store i32 %56, ptr %16, align 4, !tbaa !4
  %57 = icmp sgt i32 0, %56
  br i1 %57, label %58, label %59

58:                                               ; preds = %51
  store i32 0, ptr %18, align 4, !tbaa !4
  br label %59

59:                                               ; preds = %58, %51
  %60 = load i32, ptr %18, align 4, !tbaa !4
  %61 = icmp ne i32 %60, 0
  br i1 %61, label %62, label %74

62:                                               ; preds = %59
  %63 = load ptr, ptr %8, align 8, !tbaa !44
  %64 = getelementptr inbounds nuw %struct.FLAC__StreamMetadata, ptr %63, i32 0, i32 3
  %65 = getelementptr inbounds nuw %struct.FLAC__StreamMetadata_VorbisComment, ptr %64, i32 0, i32 2
  %66 = load ptr, ptr %65, align 8, !tbaa !48
  %67 = load i32, ptr %15, align 4, !tbaa !4
  %68 = sext i32 %67 to i64
  %69 = getelementptr inbounds %struct.FLAC__StreamMetadata_VorbisComment_Entry, ptr %66, i64 %68
  %70 = load ptr, ptr %12, align 8, !tbaa !62
  %71 = call i32 @parse_double_(ptr noundef %69, ptr noundef %70)
  %72 = icmp ne i32 %71, 0
  br i1 %72, label %74, label %73

73:                                               ; preds = %62
  store i32 0, ptr %18, align 4, !tbaa !4
  br label %74

74:                                               ; preds = %73, %62, %59
  %75 = load i32, ptr %18, align 4, !tbaa !4
  %76 = icmp ne i32 %75, 0
  br i1 %76, label %77, label %89

77:                                               ; preds = %74
  %78 = load ptr, ptr %8, align 8, !tbaa !44
  %79 = getelementptr inbounds nuw %struct.FLAC__StreamMetadata, ptr %78, i32 0, i32 3
  %80 = getelementptr inbounds nuw %struct.FLAC__StreamMetadata_VorbisComment, ptr %79, i32 0, i32 2
  %81 = load ptr, ptr %80, align 8, !tbaa !48
  %82 = load i32, ptr %16, align 4, !tbaa !4
  %83 = sext i32 %82 to i64
  %84 = getelementptr inbounds %struct.FLAC__StreamMetadata_VorbisComment_Entry, ptr %81, i64 %83
  %85 = load ptr, ptr %13, align 8, !tbaa !62
  %86 = call i32 @parse_double_(ptr noundef %84, ptr noundef %85)
  %87 = icmp ne i32 %86, 0
  br i1 %87, label %89, label %88

88:                                               ; preds = %77
  store i32 0, ptr %18, align 4, !tbaa !4
  br label %89

89:                                               ; preds = %88, %77, %74
  %90 = load i32, ptr %18, align 4, !tbaa !4
  %91 = icmp ne i32 %90, 0
  br i1 %91, label %92, label %97

92:                                               ; preds = %89
  %93 = load ptr, ptr %13, align 8, !tbaa !62
  %94 = load double, ptr %93, align 8, !tbaa !8
  %95 = fcmp olt double %94, 0.000000e+00
  br i1 %95, label %96, label %97

96:                                               ; preds = %92
  store i32 0, ptr %18, align 4, !tbaa !4
  br label %97

97:                                               ; preds = %96, %92, %89
  %98 = load ptr, ptr %17, align 8, !tbaa !28
  %99 = call ptr @setlocale(i32 noundef 6, ptr noundef %98) #8
  %100 = load ptr, ptr %17, align 8, !tbaa !28
  call void @free(ptr noundef %100) #8
  %101 = load i32, ptr %18, align 4, !tbaa !4
  %102 = icmp ne i32 %101, 0
  br i1 %102, label %116, label %103

103:                                              ; preds = %97
  %104 = load i32, ptr %10, align 4, !tbaa !4
  %105 = icmp ne i32 %104, 0
  br i1 %105, label %116, label %106

106:                                              ; preds = %103
  %107 = load ptr, ptr %8, align 8, !tbaa !44
  %108 = load i32, ptr %9, align 4, !tbaa !4
  %109 = icmp ne i32 %108, 0
  %110 = xor i1 %109, true
  %111 = zext i1 %110 to i32
  %112 = load ptr, ptr %11, align 8, !tbaa !62
  %113 = load ptr, ptr %12, align 8, !tbaa !62
  %114 = load ptr, ptr %13, align 8, !tbaa !62
  %115 = call i32 @grabbag__replaygain_load_from_vorbiscomment(ptr noundef %107, i32 noundef %111, i32 noundef 1, ptr noundef %112, ptr noundef %113, ptr noundef %114)
  store i32 %115, ptr %18, align 4, !tbaa !4
  br label %116

116:                                              ; preds = %106, %103, %97
  %117 = load i32, ptr %18, align 4, !tbaa !4
  store i32 %117, ptr %7, align 4
  store i32 1, ptr %19, align 4
  br label %118

118:                                              ; preds = %116, %27
  call void @llvm.lifetime.end.p0(i64 4, ptr %18) #8
  call void @llvm.lifetime.end.p0(i64 8, ptr %17) #8
  call void @llvm.lifetime.end.p0(i64 4, ptr %16) #8
  call void @llvm.lifetime.end.p0(i64 4, ptr %15) #8
  call void @llvm.lifetime.end.p0(i64 4, ptr %14) #8
  %119 = load i32, ptr %7, align 4
  ret i32 %119
}