; Function Attrs: nounwind sspstrong uwtable
define dso_local range(i32 0, 2) i32 @grabbag__replaygain_load_from_vorbiscomment(ptr noundef %0, i32 noundef %1, i32 noundef %2, ptr noundef writeonly captures(none) initializes((0, 8)) %3, ptr noundef writeonly captures(none) %4, ptr noundef writeonly captures(none) %5) local_unnamed_addr #0 {
  %7 = alloca [32 x i8], align 16
  %8 = alloca ptr, align 8
  %9 = alloca [32 x i8], align 16
  %10 = alloca ptr, align 8
  %11 = alloca [32 x i8], align 16
  %12 = alloca ptr, align 8
  %13 = load float, ptr @ReplayGainReferenceLoudness, align 4, !tbaa !13
  %14 = fpext float %13 to double
  store double %14, ptr %3, align 8, !tbaa !4
  %15 = tail call ptr @setlocale(i32 noundef 6, ptr noundef null) #14
  %16 = tail call noalias ptr @strdup(ptr noundef %15) #14
  %17 = icmp eq ptr %16, null
  br i1 %17, label %109, label %18

18:                                               ; preds = %6
  %19 = tail call ptr @setlocale(i32 noundef 6, ptr noundef nonnull @.str.8) #14
  %20 = tail call i32 @FLAC__metadata_object_vorbiscomment_find_entry_from(ptr noundef %0, i32 noundef 0, ptr noundef nonnull @.str) #14
  %21 = icmp sgt i32 %20, -1
  br i1 %21, label %22, label %47

22:                                               ; preds = %18
  %23 = getelementptr inbounds nuw i8, ptr %0, i64 40
  %24 = load ptr, ptr %23, align 8, !tbaa !39
  %25 = zext nneg i32 %20 to i64
  %26 = getelementptr inbounds nuw %struct.FLAC__StreamMetadata_VorbisComment_Entry, ptr %24, i64 %25
  call void @llvm.lifetime.start.p0(i64 32, ptr nonnull %11) #14
  call void @llvm.lifetime.start.p0(i64 8, ptr nonnull %12) #14
  %27 = getelementptr inbounds nuw i8, ptr %26, i64 8
  %28 = load ptr, ptr %27, align 8, !tbaa !52
  %29 = tail call ptr @strchr(ptr noundef nonnull dereferenceable(1) %28, i32 noundef 61) #15
  %30 = icmp eq ptr %29, null
  br i1 %30, label %parse_double_.exit, label %31

31:                                               ; preds = %22
  %32 = getelementptr inbounds nuw i8, ptr %29, i64 1
  %33 = load i32, ptr %26, align 8, !tbaa !54
  %34 = zext i32 %33 to i64
  %35 = ptrtoint ptr %32 to i64
  %36 = ptrtoint ptr %28 to i64
  %.neg.i = sub i64 %36, %35
  %37 = add i64 %.neg.i, %34
  %38 = icmp eq i64 %37, 0
  br i1 %38, label %safe_strncpy.exit.i, label %39

39:                                               ; preds = %31
  %spec.select.i = tail call i64 @llvm.umin.i64(i64 %37, i64 32)
  %40 = add nsw i64 %spec.select.i, -1
  %41 = call ptr @__strncpy_chk(ptr noundef nonnull %11, ptr noundef nonnull %32, i64 noundef range(i64 0, 32) %40, i64 noundef 32) #14
  %42 = getelementptr inbounds nuw i8, ptr %11, i64 %40
  store i8 0, ptr %42, align 1, !tbaa !39
  br label %safe_strncpy.exit.i

safe_strncpy.exit.i:                              ; preds = %39, %31
  %43 = call double @strtod(ptr noundef nonnull %11, ptr noundef nonnull %12) #14
  %44 = load ptr, ptr %12, align 8, !tbaa !44
  %45 = icmp eq ptr %44, %11
  br i1 %45, label %parse_double_.exit, label %46

46:                                               ; preds = %safe_strncpy.exit.i
  store double %43, ptr %3, align 8, !tbaa !4
  br label %parse_double_.exit

parse_double_.exit:                               ; preds = %22, %safe_strncpy.exit.i, %46
  call void @llvm.lifetime.end.p0(i64 8, ptr nonnull %12) #14
  call void @llvm.lifetime.end.p0(i64 32, ptr nonnull %11) #14
  br label %47

47:                                               ; preds = %parse_double_.exit, %18
  %.not = icmp eq i32 %1, 0
  %48 = select i1 %.not, ptr @.str.1, ptr @.str.3
  %49 = call i32 @FLAC__metadata_object_vorbiscomment_find_entry_from(ptr noundef %0, i32 noundef 0, ptr noundef nonnull %48) #14
  %50 = icmp slt i32 %49, 0
  %51 = select i1 %.not, ptr @.str.2, ptr @.str.4
  %52 = call i32 @FLAC__metadata_object_vorbiscomment_find_entry_from(ptr noundef %0, i32 noundef 0, ptr noundef nonnull %51) #14
  %53 = icmp slt i32 %52, 0
  %narrow.not = select i1 %53, i1 true, i1 %50
  br i1 %narrow.not, label %.critedge41, label %54

54:                                               ; preds = %47
  %55 = getelementptr inbounds nuw i8, ptr %0, i64 40
  %56 = load ptr, ptr %55, align 8, !tbaa !39
  %57 = zext nneg i32 %49 to i64
  %58 = getelementptr inbounds nuw %struct.FLAC__StreamMetadata_VorbisComment_Entry, ptr %56, i64 %57
  call void @llvm.lifetime.start.p0(i64 32, ptr nonnull %9) #14
  call void @llvm.lifetime.start.p0(i64 8, ptr nonnull %10) #14
  %59 = getelementptr inbounds nuw i8, ptr %58, i64 8
  %60 = load ptr, ptr %59, align 8, !tbaa !52
  %61 = call ptr @strchr(ptr noundef nonnull dereferenceable(1) %60, i32 noundef 61) #15
  %62 = icmp eq ptr %61, null
  br i1 %62, label %parse_double_.exit46.thread, label %63

63:                                               ; preds = %54
  %64 = getelementptr inbounds nuw i8, ptr %61, i64 1
  %65 = load i32, ptr %58, align 8, !tbaa !54
  %66 = zext i32 %65 to i64
  %67 = ptrtoint ptr %64 to i64
  %68 = ptrtoint ptr %60 to i64
  %.neg.i42 = sub i64 %68, %67
  %69 = add i64 %.neg.i42, %66
  %70 = icmp eq i64 %69, 0
  br i1 %70, label %safe_strncpy.exit.i44, label %71

71:                                               ; preds = %63
  %spec.select.i43 = call i64 @llvm.umin.i64(i64 %69, i64 32)
  %72 = add nsw i64 %spec.select.i43, -1
  %73 = call ptr @__strncpy_chk(ptr noundef nonnull %9, ptr noundef nonnull %64, i64 noundef range(i64 0, 32) %72, i64 noundef 32) #14
  %74 = getelementptr inbounds nuw i8, ptr %9, i64 %72
  store i8 0, ptr %74, align 1, !tbaa !39
  br label %safe_strncpy.exit.i44

safe_strncpy.exit.i44:                            ; preds = %71, %63
  %75 = call double @strtod(ptr noundef nonnull %9, ptr noundef nonnull %10) #14
  %76 = load ptr, ptr %10, align 8, !tbaa !44
  %77 = icmp eq ptr %76, %9
  br i1 %77, label %parse_double_.exit46.thread, label %.critedge

parse_double_.exit46.thread:                      ; preds = %54, %safe_strncpy.exit.i44
  call void @llvm.lifetime.end.p0(i64 8, ptr nonnull %10) #14
  call void @llvm.lifetime.end.p0(i64 32, ptr nonnull %9) #14
  br label %.critedge41

.critedge:                                        ; preds = %safe_strncpy.exit.i44
  store double %75, ptr %4, align 8, !tbaa !4
  call void @llvm.lifetime.end.p0(i64 8, ptr nonnull %10) #14
  call void @llvm.lifetime.end.p0(i64 32, ptr nonnull %9) #14
  %78 = load ptr, ptr %55, align 8, !tbaa !39
  %79 = zext nneg i32 %52 to i64
  %80 = getelementptr inbounds nuw %struct.FLAC__StreamMetadata_VorbisComment_Entry, ptr %78, i64 %79
  call void @llvm.lifetime.start.p0(i64 32, ptr nonnull %7) #14
  call void @llvm.lifetime.start.p0(i64 8, ptr nonnull %8) #14
  %81 = getelementptr inbounds nuw i8, ptr %80, i64 8
  %82 = load ptr, ptr %81, align 8, !tbaa !52
  %83 = call ptr @strchr(ptr noundef nonnull dereferenceable(1) %82, i32 noundef 61) #15
  %84 = icmp eq ptr %83, null
  br i1 %84, label %parse_double_.exit51.thread, label %85

85:                                               ; preds = %.critedge
  %86 = getelementptr inbounds nuw i8, ptr %83, i64 1
  %87 = load i32, ptr %80, align 8, !tbaa !54
  %88 = zext i32 %87 to i64
  %89 = ptrtoint ptr %86 to i64
  %90 = ptrtoint ptr %82 to i64
  %.neg.i47 = sub i64 %90, %89
  %91 = add i64 %.neg.i47, %88
  %92 = icmp eq i64 %91, 0
  br i1 %92, label %safe_strncpy.exit.i49, label %93

93:                                               ; preds = %85
  %spec.select.i48 = call i64 @llvm.umin.i64(i64 %91, i64 32)
  %94 = add nsw i64 %spec.select.i48, -1
  %95 = call ptr @__strncpy_chk(ptr noundef nonnull %7, ptr noundef nonnull %86, i64 noundef range(i64 0, 32) %94, i64 noundef 32) #14
  %96 = getelementptr inbounds nuw i8, ptr %7, i64 %94
  store i8 0, ptr %96, align 1, !tbaa !39
  br label %safe_strncpy.exit.i49

safe_strncpy.exit.i49:                            ; preds = %93, %85
  %97 = call double @strtod(ptr noundef nonnull %7, ptr noundef nonnull %8) #14
  %98 = load ptr, ptr %8, align 8, !tbaa !44
  %99 = icmp eq ptr %98, %7
  br i1 %99, label %parse_double_.exit51.thread, label %100

parse_double_.exit51.thread:                      ; preds = %.critedge, %safe_strncpy.exit.i49
  call void @llvm.lifetime.end.p0(i64 8, ptr nonnull %8) #14
  call void @llvm.lifetime.end.p0(i64 32, ptr nonnull %7) #14
  br label %.critedge41

100:                                              ; preds = %safe_strncpy.exit.i49
  store double %97, ptr %5, align 8, !tbaa !4
  call void @llvm.lifetime.end.p0(i64 8, ptr nonnull %8) #14
  call void @llvm.lifetime.end.p0(i64 32, ptr nonnull %7) #14
  %101 = fcmp olt double %97, 0.000000e+00
  br i1 %101, label %102, label %.critedge41

102:                                              ; preds = %100
  br label %.critedge41

.critedge41:                                      ; preds = %parse_double_.exit51.thread, %parse_double_.exit46.thread, %47, %102, %100
  %103 = phi i1 [ false, %102 ], [ true, %100 ], [ false, %47 ], [ false, %parse_double_.exit46.thread ], [ false, %parse_double_.exit51.thread ]
  %.4 = phi i32 [ 0, %102 ], [ 1, %100 ], [ 0, %47 ], [ 0, %parse_double_.exit46.thread ], [ 0, %parse_double_.exit51.thread ]
  %104 = call ptr @setlocale(i32 noundef 6, ptr noundef nonnull %16) #14
  call void @free(ptr noundef nonnull %16) #14
  %105 = icmp ne i32 %2, 0
  %or.cond = or i1 %105, %103
  br i1 %or.cond, label %109, label %106

106:                                              ; preds = %.critedge41
  %107 = zext i1 %.not to i32
  %108 = call i32 @grabbag__replaygain_load_from_vorbiscomment(ptr noundef %0, i32 noundef %107, i32 noundef 1, ptr noundef nonnull %3, ptr noundef %4, ptr noundef %5)
  br label %109

109:                                              ; preds = %.critedge41, %106, %6
  %.031 = phi i32 [ 0, %6 ], [ %.4, %.critedge41 ], [ %108, %106 ]
  ret i32 %.031
}